target datalayout = "e-m:e-p270:32:32-p271:32:32-p272:64:64-i64:64-i128:128-f80:128-n8:16:32:64-S128"
target triple = "x86_64-pc-linux-gnu"

%struct.evhttp_connection = type { %struct.anon, ptr, %struct.event, ptr, i16, ptr, i16, ptr, i64, i64, i32, %struct.timeval, %struct.timeval, %struct.timeval, i32, i32, %struct.timeval, i32, ptr, %struct.evcon_requestq, ptr, ptr, ptr, ptr, %struct.event_callback, ptr, ptr, i32, ptr }
%struct.anon = type { ptr, ptr }
%struct.event = type { %struct.event_callback, %union.anon.1, i32, i16, i16, ptr, %union.anon.3, %struct.timeval }
%union.anon.1 = type { %struct.anon.2 }
%struct.anon.2 = type { ptr, ptr }
%union.anon.3 = type { %struct.anon.4 }
%struct.anon.4 = type { %struct.anon.5, %struct.timeval }
%struct.anon.5 = type { ptr, ptr }
%struct.timeval = type { i64, i64 }
%struct.evcon_requestq = type { ptr, ptr }
%struct.event_callback = type { %struct.anon.0, i16, i8, i8, %union.anon, ptr }
%struct.anon.0 = type { ptr, ptr }
%union.anon = type { ptr }
%struct.evhttp_request = type { %struct.anon.8, ptr, i32, ptr, ptr, ptr, i16, ptr, i32, i32, i64, i64, ptr, ptr, i8, i8, i32, ptr, ptr, i64, i8, ptr, ptr, ptr, ptr, ptr, ptr, ptr, ptr }
%struct.anon.8 = type { ptr, ptr }

@event_debug_logging_mask_ = external global i32, align 4
@.str.63 = private unnamed_addr constant [28 x i8] c"%s: bad header lines on %d\0A\00", align 1
@__func__.evhttp_read_header = private unnamed_addr constant [19 x i8] c"evhttp_read_header\00", align 1
@.str.64 = private unnamed_addr constant [34 x i8] c"%s: checking for post data on %d\0A\00", align 1
@.str.65 = private unnamed_addr constant [31 x i8] c"%s: skipping body for code %d\0A\00", align 1
@.str.66 = private unnamed_addr constant [37 x i8] c"%s: start of read body for %s on %d\0A\00", align 1
@.str.67 = private unnamed_addr constant [21 x i8] c"%s: bad header on %d\00", align 1
@.str.95 = private unnamed_addr constant [31 x i8] c"%s: preparing to write buffer\0A\00", align 1
@__func__.evhttp_write_buffer = private unnamed_addr constant [20 x i8] c"evhttp_write_buffer\00", align 1

; Function Attrs: nounwind uwtable
define internal void @evhttp_write_buffer(ptr noundef %0, ptr noundef %1, ptr noundef %2) #0 {
  %4 = alloca ptr, align 8
  %5 = alloca ptr, align 8
  %6 = alloca ptr, align 8
  store ptr %0, ptr %4, align 8
  store ptr %1, ptr %5, align 8
  store ptr %2, ptr %6, align 8
  br label %7

7:                                                ; preds = %3
  %8 = load i32, ptr @event_debug_logging_mask_, align 4
  %9 = icmp ne i32 %8, 0
  br i1 %9, label %10, label %11

10:                                               ; preds = %7
  call void (ptr, ...) @event_debugx_(ptr noundef @.str.95, ptr noundef @__func__.evhttp_write_buffer)
  br label %11

11:                                               ; preds = %10, %7
  br label %12

12:                                               ; preds = %11
  %13 = load ptr, ptr %5, align 8
  %14 = load ptr, ptr %4, align 8
  %15 = getelementptr inbounds nuw %struct.evhttp_connection, ptr %14, i32 0, i32 20
  store ptr %13, ptr %15, align 8
  %16 = load ptr, ptr %6, align 8
  %17 = load ptr, ptr %4, align 8
  %18 = getelementptr inbounds nuw %struct.evhttp_connection, ptr %17, i32 0, i32 21
  store ptr %16, ptr %18, align 8
  %19 = load ptr, ptr %4, align 8
  %20 = getelementptr inbounds nuw %struct.evhttp_connection, ptr %19, i32 0, i32 1
  %21 = load ptr, ptr %20, align 8
  %22 = load ptr, ptr %4, align 8
  call void @bufferevent_setcb(ptr noundef %21, ptr noundef null, ptr noundef @evhttp_write_cb, ptr noundef @evhttp_error_cb, ptr noundef %22)
  %23 = load ptr, ptr %4, align 8
  %24 = getelementptr inbounds nuw %struct.evhttp_connection, ptr %23, i32 0, i32 1
  %25 = load ptr, ptr %24, align 8
  %26 = call i32 @bufferevent_enable(ptr noundef %25, i16 noundef signext 6)
  ret void
}

; Function Attrs: nounwind uwtable
define internal i32 @evhttp_response_needs_body(ptr noundef %0) #0 {
  %2 = alloca ptr, align 8
  store ptr %0, ptr %2, align 8
  %3 = load ptr, ptr %2, align 8
  %4 = getelementptr inbounds nuw %struct.evhttp_request, ptr %3, i32 0, i32 16
  %5 = load i32, ptr %4, align 4
  %6 = icmp ne i32 %5, 204
  br i1 %6, label %7, label %32

7:                                                ; preds = %1
  %8 = load ptr, ptr %2, align 8
  %9 = getelementptr inbounds nuw %struct.evhttp_request, ptr %8, i32 0, i32 16
  %10 = load i32, ptr %9, align 4
  %11 = icmp ne i32 %10, 304
  br i1 %11, label %12, label %32

12:                                               ; preds = %7
  %13 = load ptr, ptr %2, align 8
  %14 = getelementptr inbounds nuw %struct.evhttp_request, ptr %13, i32 0, i32 16
  %15 = load i32, ptr %14, align 4
  %16 = icmp slt i32 %15, 100
  br i1 %16, label %22, label %17

17:                                               ; preds = %12
  %18 = load ptr, ptr %2, align 8
  %19 = getelementptr inbounds nuw %struct.evhttp_request, ptr %18, i32 0, i32 16
  %20 = load i32, ptr %19, align 4
  %21 = icmp sge i32 %20, 200
  br i1 %21, label %22, label %32

22:                                               ; preds = %17, %12
  %23 = load ptr, ptr %2, align 8
  %24 = getelementptr inbounds nuw %struct.evhttp_request, ptr %23, i32 0, i32 9
  %25 = load i32, ptr %24, align 4
  %26 = icmp ne i32 %25, 128
  br i1 %26, label %27, label %32

27:                                               ; preds = %22
  %28 = load ptr, ptr %2, align 8
  %29 = getelementptr inbounds nuw %struct.evhttp_request, ptr %28, i32 0, i32 9
  %30 = load i32, ptr %29, align 4
  %31 = icmp ne i32 %30, 4
  br label %32

32:                                               ; preds = %27, %22, %17, %7, %1
  %33 = phi i1 [ false, %22 ], [ false, %17 ], [ false, %7 ], [ false, %1 ], [ %31, %27 ]
  %34 = zext i1 %33 to i32
  ret i32 %34
}

; Function Attrs: nounwind uwtable
define hidden void @evhttp_start_write_(ptr noundef %0) #0 {
  %2 = alloca ptr, align 8
  store ptr %0, ptr %2, align 8
  %3 = load ptr, ptr %2, align 8
  %4 = getelementptr inbounds nuw %struct.evhttp_connection, ptr %3, i32 0, i32 1
  %5 = load ptr, ptr %4, align 8
  %6 = call i32 @bufferevent_disable(ptr noundef %5, i16 noundef signext 4)
  %7 = load ptr, ptr %2, align 8
  %8 = getelementptr inbounds nuw %struct.evhttp_connection, ptr %7, i32 0, i32 1
  %9 = load ptr, ptr %8, align 8
  %10 = call i32 @bufferevent_enable(ptr noundef %9, i16 noundef signext 2)
  %11 = load ptr, ptr %2, align 8
  %12 = getelementptr inbounds nuw %struct.evhttp_connection, ptr %11, i32 0, i32 17
  store i32 7, ptr %12, align 8
  %13 = load ptr, ptr %2, align 8
  call void @evhttp_write_buffer(ptr noundef %13, ptr noundef @evhttp_write_connectioncb, ptr noundef null)
  ret void
}

; Function Attrs: nounwind uwtable
define internal void @evhttp_read_header(ptr noundef %0, ptr noundef %1) #0 {
  %3 = alloca ptr, align 8
  %4 = alloca ptr, align 8
  %5 = alloca i32, align 4
  %6 = alloca i32, align 4
  %7 = alloca i32, align 4
  %8 = alloca ptr, align 8
  store ptr %0, ptr %3, align 8
  store ptr %1, ptr %4, align 8
  call void @llvm.lifetime.start.p0(i64 4, ptr %5) #11
  call void @llvm.lifetime.start.p0(i64 4, ptr %6) #11
  %9 = load ptr, ptr %3, align 8
  %10 = getelementptr inbounds nuw %struct.evhttp_connection, ptr %9, i32 0, i32 1
  %11 = load ptr, ptr %10, align 8
  %12 = call i32 @bufferevent_getfd(ptr noundef %11)
  store i32 %12, ptr %6, align 4
  %13 = load ptr, ptr %4, align 8
  %14 = load ptr, ptr %3, align 8
  %15 = getelementptr inbounds nuw %struct.evhttp_connection, ptr %14, i32 0, i32 1
  %16 = load ptr, ptr %15, align 8
  %17 = call ptr @bufferevent_get_input(ptr noundef %16)
  %18 = call i32 @evhttp_parse_headers_(ptr noundef %13, ptr noundef %17)
  store i32 %18, ptr %5, align 4
  %19 = load i32, ptr %5, align 4
  %20 = icmp eq i32 %19, -1
  br i1 %20, label %24, label %21

21:                                               ; preds = %2
  %22 = load i32, ptr %5, align 4
  %23 = icmp eq i32 %22, -3
  br i1 %23, label %24, label %34

24:                                               ; preds = %21, %2
  br label %25

25:                                               ; preds = %24
  %26 = load i32, ptr @event_debug_logging_mask_, align 4
  %27 = icmp ne i32 %26, 0
  br i1 %27, label %28, label %30

28:                                               ; preds = %25
  %29 = load i32, ptr %6, align 4
  call void (ptr, ...) @event_debugx_(ptr noundef @.str.63, ptr noundef @__func__.evhttp_read_header, i32 noundef %29)
  br label %30

30:                                               ; preds = %28, %25
  br label %31

31:                                               ; preds = %30
  br label %32

32:                                               ; preds = %31
  %33 = load ptr, ptr %3, align 8
  call void @evhttp_connection_fail_(ptr noundef %33, i32 noundef 2)
  store i32 1, ptr %7, align 4
  br label %123

34:                                               ; preds = %21
  %35 = load i32, ptr %5, align 4
  %36 = icmp eq i32 %35, 0
  br i1 %36, label %37, label %38

37:                                               ; preds = %34
  store i32 1, ptr %7, align 4
  br label %123

38:                                               ; preds = %34
  br label %39

39:                                               ; preds = %38
  %40 = load ptr, ptr %4, align 8
  %41 = getelementptr inbounds nuw %struct.evhttp_request, ptr %40, i32 0, i32 25
  %42 = load ptr, ptr %41, align 8
  %43 = icmp ne ptr %42, null
  br i1 %43, label %44, label %57

44:                                               ; preds = %39
  %45 = load ptr, ptr %4, align 8
  %46 = getelementptr inbounds nuw %struct.evhttp_request, ptr %45, i32 0, i32 25
  %47 = load ptr, ptr %46, align 8
  %48 = load ptr, ptr %4, align 8
  %49 = load ptr, ptr %4, align 8
  %50 = getelementptr inbounds nuw %struct.evhttp_request, ptr %49, i32 0, i32 23
  %51 = load ptr, ptr %50, align 8
  %52 = call i32 %47(ptr noundef %48, ptr noundef %51)
  %53 = icmp slt i32 %52, 0
  br i1 %53, label %54, label %56

54:                                               ; preds = %44
  %55 = load ptr, ptr %3, align 8
  call void @evhttp_connection_fail_(ptr noundef %55, i32 noundef 1)
  store i32 1, ptr %7, align 4
  br label %123

56:                                               ; preds = %44
  br label %57

57:                                               ; preds = %56, %39
  %58 = load ptr, ptr %4, align 8
  %59 = getelementptr inbounds nuw %struct.evhttp_request, ptr %58, i32 0, i32 8
  %60 = load i32, ptr %59, align 8
  switch i32 %60, label %119 [
    i32 0, label %61
    i32 1, label %72
  ]

61:                                               ; preds = %57
  br label %62

62:                                               ; preds = %61
  %63 = load i32, ptr @event_debug_logging_mask_, align 4
  %64 = icmp ne i32 %63, 0
  br i1 %64, label %65, label %67

65:                                               ; preds = %62
  %66 = load i32, ptr %6, align 4
  call void (ptr, ...) @event_debugx_(ptr noundef @.str.64, ptr noundef @__func__.evhttp_read_header, i32 noundef %66)
  br label %67

67:                                               ; preds = %65, %62
  br label %68

68:                                               ; preds = %67
  br label %69

69:                                               ; preds = %68
  %70 = load ptr, ptr %3, align 8
  %71 = load ptr, ptr %4, align 8
  call void @evhttp_get_body(ptr noundef %70, ptr noundef %71)
  br label %122

72:                                               ; preds = %57
  %73 = load ptr, ptr %4, align 8
  %74 = getelementptr inbounds nuw %struct.evhttp_request, ptr %73, i32 0, i32 16
  %75 = load i32, ptr %74, align 4
  %76 = icmp eq i32 %75, 100
  br i1 %76, label %77, label %88

77:                                               ; preds = %72
  call void @llvm.lifetime.start.p0(i64 8, ptr %8) #11
  %78 = load ptr, ptr %3, align 8
  %79 = getelementptr inbounds nuw %struct.evhttp_connection, ptr %78, i32 0, i32 1
  %80 = load ptr, ptr %79, align 8
  %81 = call ptr @bufferevent_get_output(ptr noundef %80)
  store ptr %81, ptr %8, align 8
  %82 = load ptr, ptr %8, align 8
  %83 = load ptr, ptr %4, align 8
  %84 = getelementptr inbounds nuw %struct.evhttp_request, ptr %83, i32 0, i32 21
  %85 = load ptr, ptr %84, align 8
  %86 = call i32 @evbuffer_add_buffer(ptr noundef %82, ptr noundef %85)
  %87 = load ptr, ptr %3, align 8
  call void @evhttp_start_write_(ptr noundef %87)
  store i32 1, ptr %7, align 4
  call void @llvm.lifetime.end.p0(i64 8, ptr %8) #11
  br label %123

88:                                               ; preds = %72
  %89 = load ptr, ptr %4, align 8
  %90 = call i32 @evhttp_response_needs_body(ptr noundef %89)
  %91 = icmp ne i32 %90, 0
  br i1 %91, label %104, label %92

92:                                               ; preds = %88
  br label %93

93:                                               ; preds = %92
  %94 = load i32, ptr @event_debug_logging_mask_, align 4
  %95 = icmp ne i32 %94, 0
  br i1 %95, label %96, label %100

96:                                               ; preds = %93
  %97 = load ptr, ptr %4, align 8
  %98 = getelementptr inbounds nuw %struct.evhttp_request, ptr %97, i32 0, i32 16
  %99 = load i32, ptr %98, align 4
  call void (ptr, ...) @event_debugx_(ptr noundef @.str.65, ptr noundef @__func__.evhttp_read_header, i32 noundef %99)
  br label %100

100:                                              ; preds = %96, %93
  br label %101

101:                                              ; preds = %100
  br label %102

102:                                              ; preds = %101
  %103 = load ptr, ptr %3, align 8
  call void @evhttp_connection_done(ptr noundef %103)
  br label %118

104:                                              ; preds = %88
  br label %105

105:                                              ; preds = %104
  %106 = load i32, ptr @event_debug_logging_mask_, align 4
  %107 = icmp ne i32 %106, 0
  br i1 %107, label %108, label %113

108:                                              ; preds = %105
  %109 = load ptr, ptr %4, align 8
  %110 = getelementptr inbounds nuw %struct.evhttp_request, ptr %109, i32 0, i32 5
  %111 = load ptr, ptr %110, align 8
  %112 = load i32, ptr %6, align 4
  call void (ptr, ...) @event_debugx_(ptr noundef @.str.66, ptr noundef @__func__.evhttp_read_header, ptr noundef %111, i32 noundef %112)
  br label %113

113:                                              ; preds = %108, %105
  br label %114

114:                                              ; preds = %113
  br label %115

115:                                              ; preds = %114
  %116 = load ptr, ptr %3, align 8
  %117 = load ptr, ptr %4, align 8
  call void @evhttp_get_body(ptr noundef %116, ptr noundef %117)
  br label %118

118:                                              ; preds = %115, %102
  br label %122

119:                                              ; preds = %57
  %120 = load i32, ptr %6, align 4
  call void (ptr, ...) @event_warnx(ptr noundef @.str.67, ptr noundef @__func__.evhttp_read_header, i32 noundef %120)
  %121 = load ptr, ptr %3, align 8
  call void @evhttp_connection_fail_(ptr noundef %121, i32 noundef 2)
  br label %122

122:                                              ; preds = %119, %118, %69
  store i32 0, ptr %7, align 4
  br label %123

123:                                              ; preds = %122, %77, %54, %37, %32
  call void @llvm.lifetime.end.p0(i64 4, ptr %6) #11
  call void @llvm.lifetime.end.p0(i64 4, ptr %5) #11
  %124 = load i32, ptr %7, align 4
  switch i32 %124, label %126 [
    i32 0, label %125
    i32 1, label %125
  ]

125:                                              ; preds = %123, %123
  ret void

126:                                              ; preds = %123
  unreachable
}