; Function Attrs: nounwind uwtable
define internal fastcc void @evhttp_read_header(ptr noundef %0, ptr noundef %1) unnamed_addr #0 {
  %3 = getelementptr inbounds nuw i8, ptr %0, i64 16
  %4 = load ptr, ptr %3, align 8
  %5 = tail call i32 @bufferevent_getfd(ptr noundef %4) #18
  %6 = load ptr, ptr %3, align 8
  %7 = tail call ptr @bufferevent_get_input(ptr noundef %6) #18
  %8 = tail call i32 @evhttp_parse_headers_(ptr noundef %1, ptr noundef %7)
  %9 = and i32 %8, -3
  %or.cond = icmp eq i32 %9, -3
  br i1 %or.cond, label %10, label %14

10:                                               ; preds = %2
  %11 = load i32, ptr @event_debug_logging_mask_, align 4
  %.not36 = icmp eq i32 %11, 0
  br i1 %.not36, label %13, label %12

12:                                               ; preds = %10
  tail call void (ptr, ...) @event_debugx_(ptr noundef nonnull @.str.63, ptr noundef nonnull @__func__.evhttp_read_header, i32 noundef %5) #18
  br label %13

13:                                               ; preds = %12, %10
  tail call void @evhttp_connection_fail_(ptr noundef nonnull %0, i32 noundef 2)
  br label %68

14:                                               ; preds = %2
  %15 = icmp eq i32 %8, 0
  br i1 %15, label %68, label %16

16:                                               ; preds = %14
  %17 = getelementptr inbounds nuw i8, ptr %1, i64 184
  %18 = load ptr, ptr %17, align 8
  %.not = icmp eq ptr %18, null
  br i1 %.not, label %25, label %19

19:                                               ; preds = %16
  %20 = getelementptr inbounds nuw i8, ptr %1, i64 168
  %21 = load ptr, ptr %20, align 8
  %22 = tail call i32 %18(ptr noundef nonnull %1, ptr noundef %21) #18
  %23 = icmp slt i32 %22, 0
  br i1 %23, label %24, label %25

24:                                               ; preds = %19
  tail call void @evhttp_connection_fail_(ptr noundef nonnull %0, i32 noundef 1)
  br label %68

25:                                               ; preds = %19, %16
  %26 = getelementptr inbounds nuw i8, ptr %1, i64 72
  %27 = load i32, ptr %26, align 8
  switch i32 %27, label %67 [
    i32 0, label %28
    i32 1, label %32
  ]

28:                                               ; preds = %25
  %29 = load i32, ptr @event_debug_logging_mask_, align 4
  %.not35 = icmp eq i32 %29, 0
  br i1 %.not35, label %31, label %30

30:                                               ; preds = %28
  tail call void (ptr, ...) @event_debugx_(ptr noundef nonnull @.str.64, ptr noundef nonnull @__func__.evhttp_read_header, i32 noundef %5) #18
  br label %31

31:                                               ; preds = %30, %28
  tail call fastcc void @evhttp_get_body(ptr noundef nonnull %0, ptr noundef nonnull %1)
  br label %68

32:                                               ; preds = %25
  %33 = getelementptr inbounds nuw i8, ptr %1, i64 116
  %34 = load i32, ptr %33, align 4
  switch i32 %34, label %53 [
    i32 100, label %35
    i32 204, label %evhttp_response_needs_body.exit.thread
    i32 304, label %evhttp_response_needs_body.exit.thread
  ]

35:                                               ; preds = %32
  %36 = load ptr, ptr %3, align 8
  %37 = tail call ptr @bufferevent_get_output(ptr noundef %36) #18
  %38 = getelementptr inbounds nuw i8, ptr %1, i64 152
  %39 = load ptr, ptr %38, align 8
  %40 = tail call i32 @evbuffer_add_buffer(ptr noundef %37, ptr noundef %39) #18
  %41 = load ptr, ptr %3, align 8
  %42 = tail call i32 @bufferevent_disable(ptr noundef %41, i16 noundef signext 4) #18
  %43 = load ptr, ptr %3, align 8
  %44 = tail call i32 @bufferevent_enable(ptr noundef %43, i16 noundef signext 2) #18
  %45 = getelementptr inbounds nuw i8, ptr %0, i64 280
  store i32 7, ptr %45, align 8
  %46 = load i32, ptr @event_debug_logging_mask_, align 4
  %.not.i.i = icmp eq i32 %46, 0
  br i1 %.not.i.i, label %evhttp_start_write_.exit, label %47

47:                                               ; preds = %35
  tail call void (ptr, ...) @event_debugx_(ptr noundef nonnull @.str.95, ptr noundef nonnull @__func__.evhttp_write_buffer) #18
  br label %evhttp_start_write_.exit

evhttp_start_write_.exit:                         ; preds = %35, %47
  %48 = getelementptr inbounds nuw i8, ptr %0, i64 312
  store ptr @evhttp_write_connectioncb, ptr %48, align 8
  %49 = getelementptr inbounds nuw i8, ptr %0, i64 320
  store ptr null, ptr %49, align 8
  %50 = load ptr, ptr %3, align 8
  tail call void @bufferevent_setcb(ptr noundef %50, ptr noundef null, ptr noundef nonnull @evhttp_write_cb, ptr noundef nonnull @evhttp_error_cb, ptr noundef nonnull %0) #18
  %51 = load ptr, ptr %3, align 8
  %52 = tail call i32 @bufferevent_enable(ptr noundef %51, i16 noundef signext 6) #18
  br label %68

53:                                               ; preds = %32
  %54 = add i32 %34, -200
  %or.cond.i = icmp ult i32 %54, -100
  br i1 %or.cond.i, label %55, label %evhttp_response_needs_body.exit.thread

55:                                               ; preds = %53
  %56 = getelementptr inbounds nuw i8, ptr %1, i64 76
  %57 = load i32, ptr %56, align 4
  switch i32 %57, label %61 [
    i32 128, label %evhttp_response_needs_body.exit.thread
    i32 4, label %evhttp_response_needs_body.exit.thread
  ]

evhttp_response_needs_body.exit.thread:           ; preds = %55, %55, %32, %32, %53
  %58 = load i32, ptr @event_debug_logging_mask_, align 4
  %.not33 = icmp eq i32 %58, 0
  br i1 %.not33, label %60, label %59

59:                                               ; preds = %evhttp_response_needs_body.exit.thread
  tail call void (ptr, ...) @event_debugx_(ptr noundef nonnull @.str.65, ptr noundef nonnull @__func__.evhttp_read_header, i32 noundef %34) #18
  br label %60

60:                                               ; preds = %59, %evhttp_response_needs_body.exit.thread
  tail call fastcc void @evhttp_connection_done(ptr noundef nonnull %0)
  br label %68

61:                                               ; preds = %55
  %62 = load i32, ptr @event_debug_logging_mask_, align 4
  %.not34 = icmp eq i32 %62, 0
  br i1 %.not34, label %66, label %63

63:                                               ; preds = %61
  %64 = getelementptr inbounds nuw i8, ptr %1, i64 48
  %65 = load ptr, ptr %64, align 8
  tail call void (ptr, ...) @event_debugx_(ptr noundef nonnull @.str.66, ptr noundef nonnull @__func__.evhttp_read_header, ptr noundef %65, i32 noundef %5) #18
  br label %66

66:                                               ; preds = %63, %61
  tail call fastcc void @evhttp_get_body(ptr noundef nonnull %0, ptr noundef nonnull %1)
  br label %68

67:                                               ; preds = %25
  tail call void (ptr, ...) @event_warnx(ptr noundef nonnull @.str.67, ptr noundef nonnull @__func__.evhttp_read_header, i32 noundef %5) #18
  tail call void @evhttp_connection_fail_(ptr noundef nonnull %0, i32 noundef 2)
  br label %68

68:                                               ; preds = %31, %67, %66, %60, %14, %evhttp_start_write_.exit, %24, %13
  ret void
}